target datalayout = "e-m:e-p270:32:32-p271:32:32-p272:64:64-i64:64-i128:128-f80:128-n8:16:32:64-S128"
target triple = "x86_64-unknown-linux-gnu"

%"class.std::basic_istream" = type { ptr, i64, %"class.std::basic_ios" }
%"class.std::basic_ios" = type { %"class.std::ios_base", ptr, i8, i8, ptr, ptr, ptr, ptr }
%"class.std::ios_base" = type { ptr, i64, i64, i32, i32, i32, ptr, %"struct.std::ios_base::_Words", [8 x %"struct.std::ios_base::_Words"], i32, ptr, %"class.std::locale" }
%"struct.std::ios_base::_Words" = type { ptr, i64 }
%"class.std::locale" = type { ptr }
%"class.std::basic_ostream" = type { ptr, %"class.std::basic_ios" }
%class.veloxtpFlexLexer = type <{ %class.FlexLexer.base, i32, i32, [4 x i8], ptr, %"class.std::basic_istream", %"class.std::basic_ostream", i8, [3 x i8], i32, ptr, i32, i32, i32, [4 x i8], i64, i64, ptr, i32, [4 x i8], ptr, ptr, ptr, ptr, ptr, i32, i32, i32, i32, i32, i32, i32, [4 x i8] }>
%class.FlexLexer.base = type <{ ptr, ptr, i32, i32, i32 }>
%struct.yy_buffer_state = type { ptr, ptr, ptr, i32, i32, i32, i32, i32, i32, i32, i32, i32 }

; Function Attrs: mustprogress nounwind uwtable
define void @_Z11veloxtpfreePv(ptr noundef %ptr) #4 {
entry:
  %ptr.addr = alloca ptr, align 8
  store ptr %ptr, ptr %ptr.addr, align 8
  %0 = load ptr, ptr %ptr.addr, align 8
  call void @free(ptr noundef %0) #3
  ret void
}

; Function Attrs: mustprogress uwtable
define void @_ZN16veloxtpFlexLexer16yy_delete_bufferEP15yy_buffer_state(ptr noundef nonnull align 8 dereferenceable(732) %this, ptr noundef %b) unnamed_addr #5 align 2 {
entry:
  %this.addr = alloca ptr, align 8
  %b.addr = alloca ptr, align 8
  store ptr %this, ptr %this.addr, align 8
  store ptr %b, ptr %b.addr, align 8
  %this1 = load ptr, ptr %this.addr, align 8
  %0 = load ptr, ptr %b.addr, align 8
  %tobool = icmp ne ptr %0, null
  br i1 %tobool, label %if.end, label %if.then

if.then:                                          ; preds = %entry
  br label %return

if.end:                                           ; preds = %entry
  %1 = load ptr, ptr %b.addr, align 8
  %yy_buffer_stack = getelementptr inbounds %class.veloxtpFlexLexer, ptr %this1, i32 0, i32 17
  %2 = load ptr, ptr %yy_buffer_stack, align 8
  %tobool2 = icmp ne ptr %2, null
  br i1 %tobool2, label %cond.true, label %cond.false

cond.true:                                        ; preds = %if.end
  %yy_buffer_stack3 = getelementptr inbounds %class.veloxtpFlexLexer, ptr %this1, i32 0, i32 17
  %3 = load ptr, ptr %yy_buffer_stack3, align 8
  %yy_buffer_stack_top = getelementptr inbounds %class.veloxtpFlexLexer, ptr %this1, i32 0, i32 15
  %4 = load i64, ptr %yy_buffer_stack_top, align 8
  %arrayidx = getelementptr inbounds ptr, ptr %3, i64 %4
  %5 = load ptr, ptr %arrayidx, align 8
  br label %cond.end

cond.false:                                       ; preds = %if.end
  br label %cond.end

cond.end:                                         ; preds = %cond.false, %cond.true
  %cond = phi ptr [ %5, %cond.true ], [ null, %cond.false ]
  %cmp = icmp eq ptr %1, %cond
  br i1 %cmp, label %if.then4, label %if.end8

if.then4:                                         ; preds = %cond.end
  %yy_buffer_stack5 = getelementptr inbounds %class.veloxtpFlexLexer, ptr %this1, i32 0, i32 17
  %6 = load ptr, ptr %yy_buffer_stack5, align 8
  %yy_buffer_stack_top6 = getelementptr inbounds %class.veloxtpFlexLexer, ptr %this1, i32 0, i32 15
  %7 = load i64, ptr %yy_buffer_stack_top6, align 8
  %arrayidx7 = getelementptr inbounds ptr, ptr %6, i64 %7
  store ptr null, ptr %arrayidx7, align 8
  br label %if.end8

if.end8:                                          ; preds = %if.then4, %cond.end
  %8 = load ptr, ptr %b.addr, align 8
  %yy_is_our_buffer = getelementptr inbounds %struct.yy_buffer_state, ptr %8, i32 0, i32 5
  %9 = load i32, ptr %yy_is_our_buffer, align 8
  %tobool9 = icmp ne i32 %9, 0
  br i1 %tobool9, label %if.then10, label %if.end11

if.then10:                                        ; preds = %if.end8
  %10 = load ptr, ptr %b.addr, align 8
  %yy_ch_buf = getelementptr inbounds %struct.yy_buffer_state, ptr %10, i32 0, i32 1
  %11 = load ptr, ptr %yy_ch_buf, align 8
  call void @_Z11veloxtpfreePv(ptr noundef %11)
  br label %if.end11

if.end11:                                         ; preds = %if.then10, %if.end8
  %12 = load ptr, ptr %b.addr, align 8
  call void @_Z11veloxtpfreePv(ptr noundef %12)
  br label %return

return:                                           ; preds = %if.end11, %if.then
  ret void
}