; Function Attrs: mustprogress nounwind willreturn uwtable
define void @_ZN16veloxtpFlexLexer16yy_delete_bufferEP15yy_buffer_state(ptr nocapture noundef nonnull readonly align 8 dereferenceable(732) %this, ptr noundef %b) unnamed_addr #13 align 2 {
entry:
  %tobool.not = icmp eq ptr %b, null
  br i1 %tobool.not, label %return, label %if.end

if.end:                                           ; preds = %entry
  %yy_buffer_stack = getelementptr inbounds i8, ptr %this, i64 648
  %0 = load ptr, ptr %yy_buffer_stack, align 8
  %tobool2.not = icmp eq ptr %0, null
  br i1 %tobool2.not, label %cond.end, label %cond.true

cond.true:                                        ; preds = %if.end
  %yy_buffer_stack_top = getelementptr inbounds i8, ptr %this, i64 632
  %1 = load i64, ptr %yy_buffer_stack_top, align 8
  %arrayidx = getelementptr inbounds ptr, ptr %0, i64 %1
  %2 = load ptr, ptr %arrayidx, align 8
  br label %cond.end

cond.end:                                         ; preds = %if.end, %cond.true
  %cond = phi ptr [ %2, %cond.true ], [ null, %if.end ]
  %cmp = icmp eq ptr %cond, %b
  br i1 %cmp, label %if.then4, label %if.end8

if.then4:                                         ; preds = %cond.end
  %yy_buffer_stack_top6 = getelementptr inbounds i8, ptr %this, i64 632
  %3 = load i64, ptr %yy_buffer_stack_top6, align 8
  %arrayidx7 = getelementptr inbounds ptr, ptr %0, i64 %3
  store ptr null, ptr %arrayidx7, align 8
  br label %if.end8

if.end8:                                          ; preds = %if.then4, %cond.end
  %yy_is_our_buffer = getelementptr inbounds i8, ptr %b, i64 32
  %4 = load i32, ptr %yy_is_our_buffer, align 8
  %tobool9.not = icmp eq i32 %4, 0
  br i1 %tobool9.not, label %if.end11, label %if.then10

if.then10:                                        ; preds = %if.end8
  %yy_ch_buf = getelementptr inbounds i8, ptr %b, i64 8
  %5 = load ptr, ptr %yy_ch_buf, align 8
  tail call void @free(ptr noundef %5) #34
  br label %if.end11

if.end11:                                         ; preds = %if.then10, %if.end8
  tail call void @free(ptr noundef nonnull %b) #34
  br label %return

return:                                           ; preds = %entry, %if.end11
  ret void
}